target datalayout = "e-m:e-p270:32:32-p271:32:32-p272:64:64-i64:64-i128:128-f80:128-n8:16:32:64-S128"
target triple = "x86_64-pc-linux-gnu"

%struct.ggml_gallocr = type { ptr, ptr, ptr, i32, %struct.ggml_hash_set, ptr, ptr, i32, ptr, i32 }
%struct.ggml_hash_set = type { i64, ptr, ptr }

; Function Attrs: nounwind uwtable
define internal void @ggml_dyn_tallocr_free(ptr noundef %0) #0 {
  %2 = alloca ptr, align 8
  store ptr %0, ptr %2, align 8, !tbaa !41
  %3 = load ptr, ptr %2, align 8, !tbaa !41
  call void @free(ptr noundef %3) #11
  ret void
}

; Function Attrs: nounwind uwtable
define void @ggml_gallocr_free(ptr noundef %0) #0 {
  %2 = alloca ptr, align 8
  %3 = alloca i32, align 4
  %4 = alloca i32, align 4
  %5 = alloca i8, align 1
  %6 = alloca i32, align 4
  %7 = alloca i8, align 1
  %8 = alloca i32, align 4
  store ptr %0, ptr %2, align 8, !tbaa !25
  %9 = load ptr, ptr %2, align 8, !tbaa !25
  %10 = icmp eq ptr %9, null
  br i1 %10, label %11, label %12

11:                                               ; preds = %1
  br label %136

12:                                               ; preds = %1
  call void @llvm.lifetime.start.p0(i64 4, ptr %3) #11
  store i32 0, ptr %3, align 4, !tbaa !23
  br label %13

13:                                               ; preds = %111, %12
  %14 = load i32, ptr %3, align 4, !tbaa !23
  %15 = load ptr, ptr %2, align 8, !tbaa !25
  %16 = getelementptr inbounds nuw %struct.ggml_gallocr, ptr %15, i32 0, i32 3
  %17 = load i32, ptr %16, align 8, !tbaa !46
  %18 = icmp slt i32 %14, %17
  br i1 %18, label %20, label %19

19:                                               ; preds = %13
  store i32 2, ptr %4, align 4
  call void @llvm.lifetime.end.p0(i64 4, ptr %3) #11
  br label %114

20:                                               ; preds = %13
  %21 = load ptr, ptr %2, align 8, !tbaa !25
  %22 = getelementptr inbounds nuw %struct.ggml_gallocr, ptr %21, i32 0, i32 1
  %23 = load ptr, ptr %22, align 8, !tbaa !37
  %24 = icmp ne ptr %23, null
  br i1 %24, label %25, label %65

25:                                               ; preds = %20
  call void @llvm.lifetime.start.p0(i64 1, ptr %5) #11
  store i8 0, ptr %5, align 1, !tbaa !51
  call void @llvm.lifetime.start.p0(i64 4, ptr %6) #11
  store i32 0, ptr %6, align 4, !tbaa !23
  br label %26

26:                                               ; preds = %49, %25
  %27 = load i32, ptr %6, align 4, !tbaa !23
  %28 = load i32, ptr %3, align 4, !tbaa !23
  %29 = icmp slt i32 %27, %28
  br i1 %29, label %31, label %30

30:                                               ; preds = %26
  store i32 5, ptr %4, align 4
  br label %52

31:                                               ; preds = %26
  %32 = load ptr, ptr %2, align 8, !tbaa !25
  %33 = getelementptr inbounds nuw %struct.ggml_gallocr, ptr %32, i32 0, i32 1
  %34 = load ptr, ptr %33, align 8, !tbaa !37
  %35 = load i32, ptr %6, align 4, !tbaa !23
  %36 = sext i32 %35 to i64
  %37 = getelementptr inbounds ptr, ptr %34, i64 %36
  %38 = load ptr, ptr %37, align 8, !tbaa !3
  %39 = load ptr, ptr %2, align 8, !tbaa !25
  %40 = getelementptr inbounds nuw %struct.ggml_gallocr, ptr %39, i32 0, i32 1
  %41 = load ptr, ptr %40, align 8, !tbaa !37
  %42 = load i32, ptr %3, align 4, !tbaa !23
  %43 = sext i32 %42 to i64
  %44 = getelementptr inbounds ptr, ptr %41, i64 %43
  %45 = load ptr, ptr %44, align 8, !tbaa !3
  %46 = icmp eq ptr %38, %45
  br i1 %46, label %47, label %48

47:                                               ; preds = %31
  store i8 1, ptr %5, align 1, !tbaa !51
  store i32 5, ptr %4, align 4
  br label %52

48:                                               ; preds = %31
  br label %49

49:                                               ; preds = %48
  %50 = load i32, ptr %6, align 4, !tbaa !23
  %51 = add nsw i32 %50, 1
  store i32 %51, ptr %6, align 4, !tbaa !23
  br label %26, !llvm.loop !53

52:                                               ; preds = %47, %30
  call void @llvm.lifetime.end.p0(i64 4, ptr %6) #11
  br label %53

53:                                               ; preds = %52
  %54 = load i8, ptr %5, align 1, !tbaa !51, !range !54, !noundef !55
  %55 = trunc i8 %54 to i1
  br i1 %55, label %64, label %56

56:                                               ; preds = %53
  %57 = load ptr, ptr %2, align 8, !tbaa !25
  %58 = getelementptr inbounds nuw %struct.ggml_gallocr, ptr %57, i32 0, i32 1
  %59 = load ptr, ptr %58, align 8, !tbaa !37
  %60 = load i32, ptr %3, align 4, !tbaa !23
  %61 = sext i32 %60 to i64
  %62 = getelementptr inbounds ptr, ptr %59, i64 %61
  %63 = load ptr, ptr %62, align 8, !tbaa !3
  call void @ggml_backend_buffer_free(ptr noundef %63)
  br label %64

64:                                               ; preds = %56, %53
  call void @llvm.lifetime.end.p0(i64 1, ptr %5) #11
  br label %65

65:                                               ; preds = %64, %20
  %66 = load ptr, ptr %2, align 8, !tbaa !25
  %67 = getelementptr inbounds nuw %struct.ggml_gallocr, ptr %66, i32 0, i32 2
  %68 = load ptr, ptr %67, align 8, !tbaa !38
  %69 = icmp ne ptr %68, null
  br i1 %69, label %70, label %110

70:                                               ; preds = %65
  call void @llvm.lifetime.start.p0(i64 1, ptr %7) #11
  store i8 0, ptr %7, align 1, !tbaa !51
  call void @llvm.lifetime.start.p0(i64 4, ptr %8) #11
  store i32 0, ptr %8, align 4, !tbaa !23
  br label %71

71:                                               ; preds = %94, %70
  %72 = load i32, ptr %8, align 4, !tbaa !23
  %73 = load i32, ptr %3, align 4, !tbaa !23
  %74 = icmp slt i32 %72, %73
  br i1 %74, label %76, label %75

75:                                               ; preds = %71
  store i32 8, ptr %4, align 4
  br label %97

76:                                               ; preds = %71
  %77 = load ptr, ptr %2, align 8, !tbaa !25
  %78 = getelementptr inbounds nuw %struct.ggml_gallocr, ptr %77, i32 0, i32 2
  %79 = load ptr, ptr %78, align 8, !tbaa !38
  %80 = load i32, ptr %8, align 4, !tbaa !23
  %81 = sext i32 %80 to i64
  %82 = getelementptr inbounds ptr, ptr %79, i64 %81
  %83 = load ptr, ptr %82, align 8, !tbaa !41
  %84 = load ptr, ptr %2, align 8, !tbaa !25
  %85 = getelementptr inbounds nuw %struct.ggml_gallocr, ptr %84, i32 0, i32 2
  %86 = load ptr, ptr %85, align 8, !tbaa !38
  %87 = load i32, ptr %3, align 4, !tbaa !23
  %88 = sext i32 %87 to i64
  %89 = getelementptr inbounds ptr, ptr %86, i64 %88
  %90 = load ptr, ptr %89, align 8, !tbaa !41
  %91 = icmp eq ptr %83, %90
  br i1 %91, label %92, label %93

92:                                               ; preds = %76
  store i8 1, ptr %7, align 1, !tbaa !51
  store i32 8, ptr %4, align 4
  br label %97

93:                                               ; preds = %76
  br label %94

94:                                               ; preds = %93
  %95 = load i32, ptr %8, align 4, !tbaa !23
  %96 = add nsw i32 %95, 1
  store i32 %96, ptr %8, align 4, !tbaa !23
  br label %71, !llvm.loop !56

97:                                               ; preds = %92, %75
  call void @llvm.lifetime.end.p0(i64 4, ptr %8) #11
  br label %98

98:                                               ; preds = %97
  %99 = load i8, ptr %7, align 1, !tbaa !51, !range !54, !noundef !55
  %100 = trunc i8 %99 to i1
  br i1 %100, label %109, label %101

101:                                              ; preds = %98
  %102 = load ptr, ptr %2, align 8, !tbaa !25
  %103 = getelementptr inbounds nuw %struct.ggml_gallocr, ptr %102, i32 0, i32 2
  %104 = load ptr, ptr %103, align 8, !tbaa !38
  %105 = load i32, ptr %3, align 4, !tbaa !23
  %106 = sext i32 %105 to i64
  %107 = getelementptr inbounds ptr, ptr %104, i64 %106
  %108 = load ptr, ptr %107, align 8, !tbaa !41
  call void @ggml_dyn_tallocr_free(ptr noundef %108)
  br label %109

109:                                              ; preds = %101, %98
  call void @llvm.lifetime.end.p0(i64 1, ptr %7) #11
  br label %110

110:                                              ; preds = %109, %65
  br label %111

111:                                              ; preds = %110
  %112 = load i32, ptr %3, align 4, !tbaa !23
  %113 = add nsw i32 %112, 1
  store i32 %113, ptr %3, align 4, !tbaa !23
  br label %13, !llvm.loop !57

114:                                              ; preds = %19
  %115 = load ptr, ptr %2, align 8, !tbaa !25
  %116 = getelementptr inbounds nuw %struct.ggml_gallocr, ptr %115, i32 0, i32 4
  call void @ggml_hash_set_free(ptr noundef %116)
  %117 = load ptr, ptr %2, align 8, !tbaa !25
  %118 = getelementptr inbounds nuw %struct.ggml_gallocr, ptr %117, i32 0, i32 5
  %119 = load ptr, ptr %118, align 8, !tbaa !58
  call void @free(ptr noundef %119) #11
  %120 = load ptr, ptr %2, align 8, !tbaa !25
  %121 = getelementptr inbounds nuw %struct.ggml_gallocr, ptr %120, i32 0, i32 0
  %122 = load ptr, ptr %121, align 8, !tbaa !27
  call void @free(ptr noundef %122) #11
  %123 = load ptr, ptr %2, align 8, !tbaa !25
  %124 = getelementptr inbounds nuw %struct.ggml_gallocr, ptr %123, i32 0, i32 1
  %125 = load ptr, ptr %124, align 8, !tbaa !37
  call void @free(ptr noundef %125) #11
  %126 = load ptr, ptr %2, align 8, !tbaa !25
  %127 = getelementptr inbounds nuw %struct.ggml_gallocr, ptr %126, i32 0, i32 2
  %128 = load ptr, ptr %127, align 8, !tbaa !38
  call void @free(ptr noundef %128) #11
  %129 = load ptr, ptr %2, align 8, !tbaa !25
  %130 = getelementptr inbounds nuw %struct.ggml_gallocr, ptr %129, i32 0, i32 6
  %131 = load ptr, ptr %130, align 8, !tbaa !59
  call void @free(ptr noundef %131) #11
  %132 = load ptr, ptr %2, align 8, !tbaa !25
  %133 = getelementptr inbounds nuw %struct.ggml_gallocr, ptr %132, i32 0, i32 8
  %134 = load ptr, ptr %133, align 8, !tbaa !60
  call void @free(ptr noundef %134) #11
  %135 = load ptr, ptr %2, align 8, !tbaa !25
  call void @free(ptr noundef %135) #11
  br label %136

136:                                              ; preds = %114, %11
  ret void
}