; Function Attrs: nounwind uwtable
define void @ggml_gallocr_free(ptr noundef %0) local_unnamed_addr #0 {
  %2 = icmp eq ptr %0, null
  br i1 %2, label %42, label %.preheader43

.preheader43:                                     ; preds = %1
  %3 = getelementptr inbounds nuw i8, ptr %0, i64 24
  %4 = load i32, ptr %3, align 8, !tbaa !28
  %5 = icmp sgt i32 %4, 0
  br i1 %5, label %.lr.ph48, label %._crit_edge

.lr.ph48:                                         ; preds = %.preheader43
  %6 = getelementptr inbounds nuw i8, ptr %0, i64 8
  %7 = getelementptr inbounds nuw i8, ptr %0, i64 16
  br label %20

._crit_edge:                                      ; preds = %.loopexit, %.preheader43
  %8 = getelementptr inbounds nuw i8, ptr %0, i64 32
  tail call void @ggml_hash_set_free(ptr noundef nonnull %8) #12
  %9 = getelementptr inbounds nuw i8, ptr %0, i64 56
  %10 = load ptr, ptr %9, align 8, !tbaa !43
  tail call void @free(ptr noundef %10) #12
  %11 = load ptr, ptr %0, align 8, !tbaa !13
  tail call void @free(ptr noundef %11) #12
  %12 = getelementptr inbounds nuw i8, ptr %0, i64 8
  %13 = load ptr, ptr %12, align 8, !tbaa !26
  tail call void @free(ptr noundef %13) #12
  %14 = getelementptr inbounds nuw i8, ptr %0, i64 16
  %15 = load ptr, ptr %14, align 8, !tbaa !27
  tail call void @free(ptr noundef %15) #12
  %16 = getelementptr inbounds nuw i8, ptr %0, i64 64
  %17 = load ptr, ptr %16, align 8, !tbaa !44
  tail call void @free(ptr noundef %17) #12
  %18 = getelementptr inbounds nuw i8, ptr %0, i64 80
  %19 = load ptr, ptr %18, align 8, !tbaa !45
  tail call void @free(ptr noundef %19) #12
  tail call void @free(ptr noundef nonnull %0) #12
  br label %42

20:                                               ; preds = %.lr.ph48, %.loopexit
  %indvars.iv57 = phi i64 [ 0, %.lr.ph48 ], [ %indvars.iv.next58, %.loopexit ]
  %21 = load ptr, ptr %6, align 8, !tbaa !26
  %.not = icmp eq ptr %21, null
  br i1 %.not, label %.loopexit42, label %.preheader41

.preheader41:                                     ; preds = %20
  %.not49 = icmp eq i64 %indvars.iv57, 0
  br i1 %.not49, label %.preheader41..critedge_crit_edge, label %.lr.ph

.preheader41..critedge_crit_edge:                 ; preds = %.preheader41
  %.pre = load ptr, ptr %21, align 8, !tbaa !31
  br label %.critedge

.lr.ph:                                           ; preds = %.preheader41
  %22 = getelementptr inbounds nuw ptr, ptr %21, i64 %indvars.iv57
  %23 = load ptr, ptr %22, align 8, !tbaa !31
  br label %25

24:                                               ; preds = %25
  %indvars.iv.next = add nuw nsw i64 %indvars.iv, 1
  %exitcond.not = icmp eq i64 %indvars.iv.next, %indvars.iv57
  br i1 %exitcond.not, label %.critedge, label %25, !llvm.loop !46

25:                                               ; preds = %.lr.ph, %24
  %indvars.iv = phi i64 [ 0, %.lr.ph ], [ %indvars.iv.next, %24 ]
  %26 = getelementptr inbounds nuw ptr, ptr %21, i64 %indvars.iv
  %27 = load ptr, ptr %26, align 8, !tbaa !31
  %28 = icmp eq ptr %27, %23
  br i1 %28, label %.loopexit42, label %24

.critedge:                                        ; preds = %24, %.preheader41..critedge_crit_edge
  %29 = phi ptr [ %.pre, %.preheader41..critedge_crit_edge ], [ %23, %24 ]
  tail call void @ggml_backend_buffer_free(ptr noundef %29) #12
  br label %.loopexit42

.loopexit42:                                      ; preds = %25, %.critedge, %20
  %30 = load ptr, ptr %7, align 8, !tbaa !27
  %.not38 = icmp eq ptr %30, null
  br i1 %.not38, label %.loopexit, label %.preheader

.preheader:                                       ; preds = %.loopexit42
  %.not50 = icmp eq i64 %indvars.iv57, 0
  br i1 %.not50, label %.preheader..critedge40_crit_edge, label %.lr.ph46

.preheader..critedge40_crit_edge:                 ; preds = %.preheader
  %.pre61 = load ptr, ptr %30, align 8, !tbaa !34
  br label %.critedge40

.lr.ph46:                                         ; preds = %.preheader
  %31 = getelementptr inbounds nuw ptr, ptr %30, i64 %indvars.iv57
  %32 = load ptr, ptr %31, align 8, !tbaa !34
  br label %34

33:                                               ; preds = %34
  %indvars.iv.next53 = add nuw nsw i64 %indvars.iv52, 1
  %exitcond56.not = icmp eq i64 %indvars.iv.next53, %indvars.iv57
  br i1 %exitcond56.not, label %.critedge40, label %34, !llvm.loop !47

34:                                               ; preds = %.lr.ph46, %33
  %indvars.iv52 = phi i64 [ 0, %.lr.ph46 ], [ %indvars.iv.next53, %33 ]
  %35 = getelementptr inbounds nuw ptr, ptr %30, i64 %indvars.iv52
  %36 = load ptr, ptr %35, align 8, !tbaa !34
  %37 = icmp eq ptr %36, %32
  br i1 %37, label %.loopexit, label %33

.critedge40:                                      ; preds = %33, %.preheader..critedge40_crit_edge
  %38 = phi ptr [ %.pre61, %.preheader..critedge40_crit_edge ], [ %32, %33 ]
  tail call void @free(ptr noundef %38) #12
  br label %.loopexit

.loopexit:                                        ; preds = %34, %.critedge40, %.loopexit42
  %indvars.iv.next58 = add nuw nsw i64 %indvars.iv57, 1
  %39 = load i32, ptr %3, align 8, !tbaa !28
  %40 = sext i32 %39 to i64
  %41 = icmp slt i64 %indvars.iv.next58, %40
  br i1 %41, label %20, label %._crit_edge, !llvm.loop !48

42:                                               ; preds = %1, %._crit_edge
  ret void
}